target datalayout = "e-m:e-p270:32:32-p271:32:32-p272:64:64-i64:64-i128:128-f80:128-n8:16:32:64-S128"
target triple = "x86_64-pc-linux-gnu"

%"struct.ue2::target_t" = type { i32, i64 }
%"class.ue2::FDREngineDescription" = type { %"class.ue2::EngineDescription.base", i32, i32, i32 }
%"class.ue2::EngineDescription.base" = type <{ ptr, i32, [4 x i8], %"struct.ue2::target_t", i32 }>
%"class.ue2::EngineDescription" = type <{ ptr, i32, [4 x i8], %"struct.ue2::target_t", i32, [4 x i8] }>

; Function Attrs: mustprogress nounwind uwtable
define linkonce_odr hidden noundef i32 @_ZNK3ue217EngineDescription13getNumBucketsEv(ptr noundef nonnull align 8 dereferenceable(36) %0) #3 comdat align 2 {
  %2 = alloca ptr, align 8
  store ptr %0, ptr %2, align 8
  %3 = load ptr, ptr %2, align 8
  %4 = getelementptr inbounds nuw %"class.ue2::EngineDescription", ptr %3, i32 0, i32 4
  %5 = load i32, ptr %4, align 8
  ret i32 %5
}

; Function Attrs: mustprogress nounwind uwtable
define linkonce_odr hidden noundef i32 @_ZNK3ue220FDREngineDescription14getSchemeWidthEv(ptr noundef nonnull align 8 dereferenceable(48) %0) #3 comdat align 2 {
  %2 = alloca ptr, align 8
  store ptr %0, ptr %2, align 8
  %3 = load ptr, ptr %2, align 8
  %4 = getelementptr inbounds nuw %"class.ue2::FDREngineDescription", ptr %3, i32 0, i32 1
  %5 = load i32, ptr %4, align 4
  ret i32 %5
}

; Function Attrs: mustprogress uwtable
define hidden noundef i32 @_ZNK3ue220FDREngineDescription27getDefaultFloodSuffixLengthEv(ptr noundef nonnull align 8 dereferenceable(48) %0) unnamed_addr #0 align 2 {
  %2 = alloca ptr, align 8
  store ptr %0, ptr %2, align 8
  %3 = load ptr, ptr %2, align 8
  %4 = call noundef i32 @_ZNK3ue220FDREngineDescription14getSchemeWidthEv(ptr noundef nonnull align 8 dereferenceable(48) %3)
  %5 = call noundef i32 @_ZNK3ue217EngineDescription13getNumBucketsEv(ptr noundef nonnull align 8 dereferenceable(36) %3)
  %6 = add i32 %4, %5
  %7 = sub i32 %6, 1
  %8 = call noundef i32 @_ZNK3ue217EngineDescription13getNumBucketsEv(ptr noundef nonnull align 8 dereferenceable(36) %3)
  %9 = udiv i32 %7, %8
  %10 = add i32 %9, 1
  ret i32 %10
}